target datalayout = "e-m:e-p270:32:32-p271:32:32-p272:64:64-i64:64-i128:128-f80:128-n8:16:32:64-S128"
target triple = "x86_64-pc-linux-gnu"

@.str = private unnamed_addr constant [5 x i8] c"%02x\00", align 1

; Function Attrs: nounwind uwtable
define ptr @hex_encode(ptr noundef %0, ptr noundef %1, i64 noundef %2) #0 {
  %4 = alloca ptr, align 8
  %5 = alloca ptr, align 8
  %6 = alloca ptr, align 8
  %7 = alloca i64, align 8
  %8 = alloca i64, align 8
  %9 = alloca ptr, align 8
  %10 = alloca i32, align 4
  %11 = alloca i32, align 4
  store ptr %0, ptr %5, align 8, !tbaa !3
  store ptr %1, ptr %6, align 8, !tbaa !3
  store i64 %2, ptr %7, align 8, !tbaa !8
  call void @llvm.lifetime.start.p0(i64 8, ptr %8) #9
  call void @llvm.lifetime.start.p0(i64 8, ptr %9) #9
  call void @llvm.lifetime.start.p0(i64 4, ptr %10) #9
  %12 = load ptr, ptr %5, align 8, !tbaa !3
  %13 = icmp ne ptr %12, null
  br i1 %13, label %14, label %16

14:                                               ; preds = %3
  %15 = load ptr, ptr %5, align 8, !tbaa !3
  br label %21

16:                                               ; preds = %3
  %17 = load i64, ptr %7, align 8, !tbaa !8
  %18 = mul i64 %17, 2
  %19 = add i64 %18, 1
  %20 = call noalias ptr @calloc(i64 noundef 1, i64 noundef %19) #10
  br label %21

21:                                               ; preds = %16, %14
  %22 = phi ptr [ %15, %14 ], [ %20, %16 ]
  store ptr %22, ptr %9, align 8, !tbaa !3
  %23 = load ptr, ptr %9, align 8, !tbaa !3
  %24 = icmp ne ptr %23, null
  br i1 %24, label %26, label %25

25:                                               ; preds = %21
  store ptr null, ptr %4, align 8
  store i32 1, ptr %11, align 4
  br label %49

26:                                               ; preds = %21
  store i64 0, ptr %8, align 8, !tbaa !8
  br label %27

27:                                               ; preds = %44, %26
  %28 = load i64, ptr %8, align 8, !tbaa !8
  %29 = load i64, ptr %7, align 8, !tbaa !8
  %30 = icmp ult i64 %28, %29
  br i1 %30, label %31, label %47

31:                                               ; preds = %27
  %32 = load ptr, ptr %6, align 8, !tbaa !3
  %33 = load i64, ptr %8, align 8, !tbaa !8
  %34 = getelementptr inbounds nuw i8, ptr %32, i64 %33
  %35 = load i8, ptr %34, align 1, !tbaa !10
  %36 = sext i8 %35 to i32
  %37 = and i32 %36, 255
  store i32 %37, ptr %10, align 4, !tbaa !11
  %38 = load ptr, ptr %9, align 8, !tbaa !3
  %39 = load i64, ptr %8, align 8, !tbaa !8
  %40 = mul i64 %39, 2
  %41 = getelementptr inbounds nuw i8, ptr %38, i64 %40
  %42 = load i32, ptr %10, align 4, !tbaa !11
  %43 = call i32 (ptr, ptr, ...) @sprintf(ptr noundef %41, ptr noundef @.str, i32 noundef %42) #9
  br label %44

44:                                               ; preds = %31
  %45 = load i64, ptr %8, align 8, !tbaa !8
  %46 = add i64 %45, 1
  store i64 %46, ptr %8, align 8, !tbaa !8
  br label %27

47:                                               ; preds = %27
  %48 = load ptr, ptr %9, align 8, !tbaa !3
  store ptr %48, ptr %4, align 8
  store i32 1, ptr %11, align 4
  br label %49

49:                                               ; preds = %47, %25
  call void @llvm.lifetime.end.p0(i64 4, ptr %10) #9
  call void @llvm.lifetime.end.p0(i64 8, ptr %9) #9
  call void @llvm.lifetime.end.p0(i64 8, ptr %8) #9
  %50 = load ptr, ptr %4, align 8
  ret ptr %50
}