; Function Attrs: nofree nounwind uwtable
define noundef ptr @hex_encode(ptr noundef writeonly %0, ptr noundef readonly captures(none) %1, i64 noundef %2) local_unnamed_addr #0 {
  %.not = icmp eq ptr %0, null
  br i1 %.not, label %4, label %8

4:                                                ; preds = %3
  %5 = shl i64 %2, 1
  %6 = or disjoint i64 %5, 1
  %7 = tail call noalias ptr @calloc(i64 noundef 1, i64 noundef %6) #13
  br label %8

8:                                                ; preds = %3, %4
  %9 = phi ptr [ %7, %4 ], [ %0, %3 ]
  %.not16 = icmp ne ptr %9, null
  %10 = icmp ne i64 %2, 0
  %or.cond = and i1 %.not16, %10
  br i1 %or.cond, label %.lr.ph, label %.loopexit

.lr.ph:                                           ; preds = %8, %.lr.ph
  %.01317 = phi i64 [ %17, %.lr.ph ], [ 0, %8 ]
  %11 = getelementptr inbounds nuw i8, ptr %1, i64 %.01317
  %12 = load i8, ptr %11, align 1, !tbaa !3
  %13 = zext i8 %12 to i32
  %14 = shl i64 %.01317, 1
  %15 = getelementptr inbounds nuw i8, ptr %9, i64 %14
  %16 = tail call i32 (ptr, ptr, ...) @sprintf(ptr noundef nonnull dereferenceable(1) %15, ptr noundef nonnull dereferenceable(1) @.str, i32 noundef %13) #14
  %17 = add nuw i64 %.01317, 1
  %exitcond.not = icmp eq i64 %17, %2
  br i1 %exitcond.not, label %.loopexit, label %.lr.ph

.loopexit:                                        ; preds = %.lr.ph, %8
  ret ptr %9
}